target datalayout = "e-m:e-p270:32:32-p271:32:32-p272:64:64-i64:64-i128:128-f80:128-n8:16:32:64-S128"
target triple = "x86_64-pc-linux-gnu"

@_ZZN5boost7archive6detail6detail25get_octet1_modifier_tableEvE21octet1_modifier_table = linkonce_odr hidden constant [6 x i32] [i32 0, i32 192, i32 224, i32 240, i32 248, i32 252], comdat, align 16

; Function Attrs: inlinehint mustprogress nounwind uwtable
define linkonce_odr hidden noundef i32 @_ZN5boost7archive6detail6detail29get_cont_octet_out_count_implILm4EEEiw(i32 noundef signext %0) #6 comdat {
  %2 = alloca i32, align 4
  %3 = alloca i32, align 4
  store i32 %0, ptr %3, align 4, !tbaa !14
  %4 = load i32, ptr %3, align 4, !tbaa !14
  %5 = icmp slt i32 %4, 128
  br i1 %5, label %6, label %7

6:                                                ; preds = %1
  store i32 0, ptr %2, align 4
  br label %24

7:                                                ; preds = %1
  %8 = load i32, ptr %3, align 4, !tbaa !14
  %9 = icmp slt i32 %8, 2048
  br i1 %9, label %10, label %11

10:                                               ; preds = %7
  store i32 1, ptr %2, align 4
  br label %24

11:                                               ; preds = %7
  %12 = load i32, ptr %3, align 4, !tbaa !14
  %13 = icmp slt i32 %12, 65536
  br i1 %13, label %14, label %15

14:                                               ; preds = %11
  store i32 2, ptr %2, align 4
  br label %24

15:                                               ; preds = %11
  %16 = load i32, ptr %3, align 4, !tbaa !14
  %17 = icmp slt i32 %16, 2097152
  br i1 %17, label %18, label %19

18:                                               ; preds = %15
  store i32 3, ptr %2, align 4
  br label %24

19:                                               ; preds = %15
  %20 = load i32, ptr %3, align 4, !tbaa !14
  %21 = icmp slt i32 %20, 67108864
  br i1 %21, label %22, label %23

22:                                               ; preds = %19
  store i32 4, ptr %2, align 4
  br label %24

23:                                               ; preds = %19
  store i32 5, ptr %2, align 4
  br label %24

24:                                               ; preds = %23, %22, %18, %14, %10, %6
  %25 = load i32, ptr %2, align 4
  ret i32 %25
}

; Function Attrs: mustprogress uwtable
define noundef i32 @_ZN5boost7archive6detail18utf8_codecvt_facet24get_cont_octet_out_countEw(i32 noundef signext %0) #0 align 2 {
  %2 = alloca i32, align 4
  store i32 %0, ptr %2, align 4, !tbaa !14
  %3 = load i32, ptr %2, align 4, !tbaa !14
  %4 = call noundef i32 @_ZN5boost7archive6detail6detail29get_cont_octet_out_count_implILm4EEEiw(i32 noundef signext %3)
  ret i32 %4
}

; Function Attrs: mustprogress nounwind uwtable
define linkonce_odr hidden noundef signext i32 @_ZNSt14numeric_limitsIwE3maxEv() #3 comdat align 2 {
  ret i32 2147483647
}

; Function Attrs: inlinehint mustprogress nounwind uwtable
define linkonce_odr hidden noundef ptr @_ZN5boost7archive6detail6detail25get_octet1_modifier_tableEv() #6 comdat {
  ret ptr @_ZZN5boost7archive6detail6detail25get_octet1_modifier_tableEvE21octet1_modifier_table
}

; Function Attrs: mustprogress uwtable
define noundef i32 @_ZNK5boost7archive6detail18utf8_codecvt_facet6do_outER11__mbstate_tPKwS6_RS6_PcS8_RS8_(ptr noundef nonnull align 8 dereferenceable(24) %0, ptr noundef nonnull align 4 dereferenceable(8) %1, ptr noundef %2, ptr noundef %3, ptr noundef nonnull align 8 dereferenceable(8) %4, ptr noundef %5, ptr noundef %6, ptr noundef nonnull align 8 dereferenceable(8) %7) unnamed_addr #0 align 2 {
  %9 = alloca i32, align 4
  %10 = alloca ptr, align 8
  %11 = alloca ptr, align 8
  %12 = alloca ptr, align 8
  %13 = alloca ptr, align 8
  %14 = alloca ptr, align 8
  %15 = alloca ptr, align 8
  %16 = alloca ptr, align 8
  %17 = alloca ptr, align 8
  %18 = alloca ptr, align 8
  %19 = alloca i32, align 4
  %20 = alloca i32, align 4
  %21 = alloca i32, align 4
  %22 = alloca i32, align 4
  %23 = alloca i32, align 4
  store ptr %0, ptr %10, align 8, !tbaa !3
  store ptr %1, ptr %11, align 8, !tbaa !3
  store ptr %2, ptr %12, align 8, !tbaa !3
  store ptr %3, ptr %13, align 8, !tbaa !3
  store ptr %4, ptr %14, align 8, !tbaa !3
  store ptr %5, ptr %15, align 8, !tbaa !3
  store ptr %6, ptr %16, align 8, !tbaa !3
  store ptr %7, ptr %17, align 8, !tbaa !3
  call void @llvm.lifetime.start.p0(i64 8, ptr %18) #7
  %24 = call noundef ptr @_ZN5boost7archive6detail6detail25get_octet1_modifier_tableEv() #7
  store ptr %24, ptr %18, align 8, !tbaa !3
  call void @llvm.lifetime.start.p0(i64 4, ptr %19) #7
  %25 = call noundef signext i32 @_ZNSt14numeric_limitsIwE3maxEv() #7
  store i32 %25, ptr %19, align 4, !tbaa !14
  br label %26

26:                                               ; preds = %116, %8
  %27 = load ptr, ptr %12, align 8, !tbaa !3
  %28 = load ptr, ptr %13, align 8, !tbaa !3
  %29 = icmp ne ptr %27, %28
  br i1 %29, label %30, label %34

30:                                               ; preds = %26
  %31 = load ptr, ptr %15, align 8, !tbaa !3
  %32 = load ptr, ptr %16, align 8, !tbaa !3
  %33 = icmp ne ptr %31, %32
  br label %34

34:                                               ; preds = %30, %26
  %35 = phi i1 [ false, %26 ], [ %33, %30 ]
  br i1 %35, label %36, label %117

36:                                               ; preds = %34
  %37 = load ptr, ptr %12, align 8, !tbaa !3
  %38 = load i32, ptr %37, align 4, !tbaa !14
  %39 = load i32, ptr %19, align 4, !tbaa !14
  %40 = icmp sgt i32 %38, %39
  br i1 %40, label %41, label %46

41:                                               ; preds = %36
  %42 = load ptr, ptr %12, align 8, !tbaa !3
  %43 = load ptr, ptr %14, align 8, !tbaa !3
  store ptr %42, ptr %43, align 8, !tbaa !3
  %44 = load ptr, ptr %15, align 8, !tbaa !3
  %45 = load ptr, ptr %17, align 8, !tbaa !3
  store ptr %44, ptr %45, align 8, !tbaa !3
  store i32 2, ptr %9, align 4
  store i32 1, ptr %20, align 4
  br label %127

46:                                               ; preds = %36
  call void @llvm.lifetime.start.p0(i64 4, ptr %21) #7
  %47 = load ptr, ptr %12, align 8, !tbaa !3
  %48 = load i32, ptr %47, align 4, !tbaa !14
  %49 = call noundef i32 @_ZN5boost7archive6detail18utf8_codecvt_facet24get_cont_octet_out_countEw(i32 noundef signext %48)
  store i32 %49, ptr %21, align 4, !tbaa !12
  call void @llvm.lifetime.start.p0(i64 4, ptr %22) #7
  %50 = load i32, ptr %21, align 4, !tbaa !12
  %51 = mul nsw i32 %50, 6
  store i32 %51, ptr %22, align 4, !tbaa !12
  %52 = load ptr, ptr %18, align 8, !tbaa !3
  %53 = load i32, ptr %21, align 4, !tbaa !12
  %54 = sext i32 %53 to i64
  %55 = getelementptr inbounds i32, ptr %52, i64 %54
  %56 = load i32, ptr %55, align 4, !tbaa !14
  %57 = load ptr, ptr %12, align 8, !tbaa !3
  %58 = load i32, ptr %57, align 4, !tbaa !14
  %59 = load i32, ptr %22, align 4, !tbaa !12
  %60 = shl i32 1, %59
  %61 = sdiv i32 %58, %60
  %62 = trunc i32 %61 to i8
  %63 = zext i8 %62 to i32
  %64 = add nsw i32 %56, %63
  %65 = trunc i32 %64 to i8
  %66 = load ptr, ptr %15, align 8, !tbaa !3
  %67 = getelementptr inbounds nuw i8, ptr %66, i32 1
  store ptr %67, ptr %15, align 8, !tbaa !3
  store i8 %65, ptr %66, align 1, !tbaa !11
  call void @llvm.lifetime.start.p0(i64 4, ptr %23) #7
  store i32 0, ptr %23, align 4, !tbaa !12
  br label %68

68:                                               ; preds = %78, %46
  %69 = load i32, ptr %23, align 4, !tbaa !12
  %70 = load i32, ptr %21, align 4, !tbaa !12
  %71 = icmp ne i32 %69, %70
  br i1 %71, label %72, label %76

72:                                               ; preds = %68
  %73 = load ptr, ptr %15, align 8, !tbaa !3
  %74 = load ptr, ptr %16, align 8, !tbaa !3
  %75 = icmp ne ptr %73, %74
  br label %76

76:                                               ; preds = %72, %68
  %77 = phi i1 [ false, %68 ], [ %75, %72 ]
  br i1 %77, label %78, label %93

78:                                               ; preds = %76
  %79 = load i32, ptr %22, align 4, !tbaa !12
  %80 = sub nsw i32 %79, 6
  store i32 %80, ptr %22, align 4, !tbaa !12
  %81 = load ptr, ptr %12, align 8, !tbaa !3
  %82 = load i32, ptr %81, align 4, !tbaa !14
  %83 = load i32, ptr %22, align 4, !tbaa !12
  %84 = shl i32 1, %83
  %85 = sdiv i32 %82, %84
  %86 = srem i32 %85, 64
  %87 = add nsw i32 128, %86
  %88 = trunc i32 %87 to i8
  %89 = load ptr, ptr %15, align 8, !tbaa !3
  %90 = getelementptr inbounds nuw i8, ptr %89, i32 1
  store ptr %90, ptr %15, align 8, !tbaa !3
  store i8 %88, ptr %89, align 1, !tbaa !11
  %91 = load i32, ptr %23, align 4, !tbaa !12
  %92 = add nsw i32 %91, 1
  store i32 %92, ptr %23, align 4, !tbaa !12
  br label %68, !llvm.loop !19

93:                                               ; preds = %76
  %94 = load ptr, ptr %15, align 8, !tbaa !3
  %95 = load ptr, ptr %16, align 8, !tbaa !3
  %96 = icmp eq ptr %94, %95
  br i1 %96, label %97, label %111

97:                                               ; preds = %93
  %98 = load i32, ptr %23, align 4, !tbaa !12
  %99 = load i32, ptr %21, align 4, !tbaa !12
  %100 = icmp ne i32 %98, %99
  br i1 %100, label %101, label %111

101:                                              ; preds = %97
  %102 = load ptr, ptr %12, align 8, !tbaa !3
  %103 = load ptr, ptr %14, align 8, !tbaa !3
  store ptr %102, ptr %103, align 8, !tbaa !3
  %104 = load ptr, ptr %15, align 8, !tbaa !3
  %105 = load i32, ptr %23, align 4, !tbaa !12
  %106 = add nsw i32 %105, 1
  %107 = sext i32 %106 to i64
  %108 = sub i64 0, %107
  %109 = getelementptr inbounds i8, ptr %104, i64 %108
  %110 = load ptr, ptr %17, align 8, !tbaa !3
  store ptr %109, ptr %110, align 8, !tbaa !3
  store i32 1, ptr %9, align 4
  store i32 1, ptr %20, align 4
  br label %114

111:                                              ; preds = %97, %93
  %112 = load ptr, ptr %12, align 8, !tbaa !3
  %113 = getelementptr inbounds nuw i32, ptr %112, i32 1
  store ptr %113, ptr %12, align 8, !tbaa !3
  store i32 0, ptr %20, align 4
  br label %114

114:                                              ; preds = %111, %101
  call void @llvm.lifetime.end.p0(i64 4, ptr %23) #7
  call void @llvm.lifetime.end.p0(i64 4, ptr %22) #7
  call void @llvm.lifetime.end.p0(i64 4, ptr %21) #7
  %115 = load i32, ptr %20, align 4
  switch i32 %115, label %127 [
    i32 0, label %116
  ]

116:                                              ; preds = %114
  br label %26, !llvm.loop !20

117:                                              ; preds = %34
  %118 = load ptr, ptr %12, align 8, !tbaa !3
  %119 = load ptr, ptr %14, align 8, !tbaa !3
  store ptr %118, ptr %119, align 8, !tbaa !3
  %120 = load ptr, ptr %15, align 8, !tbaa !3
  %121 = load ptr, ptr %17, align 8, !tbaa !3
  store ptr %120, ptr %121, align 8, !tbaa !3
  %122 = load ptr, ptr %12, align 8, !tbaa !3
  %123 = load ptr, ptr %13, align 8, !tbaa !3
  %124 = icmp eq ptr %122, %123
  br i1 %124, label %125, label %126

125:                                              ; preds = %117
  store i32 0, ptr %9, align 4
  store i32 1, ptr %20, align 4
  br label %127

126:                                              ; preds = %117
  store i32 1, ptr %9, align 4
  store i32 1, ptr %20, align 4
  br label %127

127:                                              ; preds = %126, %125, %114, %41
  call void @llvm.lifetime.end.p0(i64 4, ptr %19) #7
  call void @llvm.lifetime.end.p0(i64 8, ptr %18) #7
  %128 = load i32, ptr %9, align 4
  ret i32 %128
}